target datalayout = "e-m:e-p270:32:32-p271:32:32-p272:64:64-i64:64-i128:128-f80:128-n8:16:32:64-S128"
target triple = "x86_64-pc-linux-gnu"

%"class.icu_77::MaybeStackArray" = type <{ ptr, i32, i8, [40 x i8], [3 x i8] }>
%"class.icu_77::CharString" = type { %"class.icu_77::MaybeStackArray", i32, [4 x i8] }

@_ZN6icu_7715MaybeStackArrayIcLi40EED1Ev = weak_odr unnamed_addr alias void (ptr), ptr @_ZN6icu_7715MaybeStackArrayIcLi40EED2Ev

; Function Attrs: mustprogress nounwind uwtable
define weak_odr noundef ptr @_ZNK6icu_7715MaybeStackArrayIcLi40EE8getAliasEv(ptr noundef nonnull align 8 dereferenceable(53) %0) #0 comdat align 2 {
  %2 = alloca ptr, align 8
  store ptr %0, ptr %2, align 8, !tbaa !3
  %3 = load ptr, ptr %2, align 8
  %4 = getelementptr inbounds nuw %"class.icu_77::MaybeStackArray", ptr %3, i32 0, i32 0
  %5 = load ptr, ptr %4, align 8, !tbaa !8
  ret ptr %5
}

; Function Attrs: mustprogress nounwind uwtable
define linkonce_odr void @_ZN6icu_7710CharStringD2Ev(ptr noundef nonnull align 8 dereferenceable(60) %0) unnamed_addr #0 comdat align 2 {
  %2 = alloca ptr, align 8
  store ptr %0, ptr %2, align 8, !tbaa !45
  %3 = load ptr, ptr %2, align 8
  %4 = getelementptr inbounds nuw %"class.icu_77::CharString", ptr %3, i32 0, i32 0
  call void @_ZN6icu_7715MaybeStackArrayIcLi40EED1Ev(ptr noundef nonnull align 8 dereferenceable(53) %4) #12
  ret void
}

; Function Attrs: mustprogress nounwind uwtable
define linkonce_odr noundef ptr @_ZN6icu_7710CharString4dataEv(ptr noundef nonnull align 8 dereferenceable(60) %0) #0 comdat align 2 {
  %2 = alloca ptr, align 8
  store ptr %0, ptr %2, align 8, !tbaa !45
  %3 = load ptr, ptr %2, align 8
  %4 = getelementptr inbounds nuw %"class.icu_77::CharString", ptr %3, i32 0, i32 0
  %5 = call noundef ptr @_ZNK6icu_7715MaybeStackArrayIcLi40EE8getAliasEv(ptr noundef nonnull align 8 dereferenceable(53) %4)
  ret ptr %5
}

; Function Attrs: mustprogress uwtable
define internal void @_ZL11idForLocalePKcP10UErrorCode(ptr dead_on_unwind noalias writable sret(%"class.icu_77::CharString") align 8 %0, ptr noundef %1, ptr noundef %2) #1 {
  %4 = alloca ptr, align 8
  %5 = alloca ptr, align 8
  %6 = alloca ptr, align 8
  store ptr %0, ptr %4, align 8
  store ptr %1, ptr %5, align 8, !tbaa !17
  store ptr %2, ptr %6, align 8, !tbaa !22
  %7 = load ptr, ptr %5, align 8, !tbaa !17
  %8 = load ptr, ptr %6, align 8, !tbaa !22
  call void @_Z39ulocimp_getRegionForSupplementalData_77PKcbR10UErrorCode(ptr dead_on_unwind writable sret(%"class.icu_77::CharString") align 8 %0, ptr noundef %7, i1 noundef zeroext false, ptr noundef nonnull align 4 dereferenceable(4) %8)
  ret void
}

; Function Attrs: inlinehint mustprogress nounwind uwtable
define internal noundef signext i8 @_ZL9U_SUCCESS10UErrorCode(i32 noundef %0) #2 {
  %2 = alloca i32, align 4
  store i32 %0, ptr %2, align 4, !tbaa !15
  %3 = load i32, ptr %2, align 4, !tbaa !15
  %4 = icmp sle i32 %3, 0
  %5 = zext i1 %4 to i8
  ret i8 %5
}

; Function Attrs: mustprogress uwtable
define ptr @ucurr_register_77(ptr noundef %0, ptr noundef %1, ptr noundef %2) #1 personality ptr @__gxx_personality_v0 {
  %4 = alloca ptr, align 8
  %5 = alloca ptr, align 8
  %6 = alloca ptr, align 8
  %7 = alloca ptr, align 8
  %8 = alloca %"class.icu_77::CharString", align 8
  %9 = alloca ptr, align 8
  %10 = alloca i32, align 4
  store ptr %0, ptr %5, align 8, !tbaa !39
  store ptr %1, ptr %6, align 8, !tbaa !17
  store ptr %2, ptr %7, align 8, !tbaa !22
  %11 = load ptr, ptr %7, align 8, !tbaa !22
  %12 = icmp ne ptr %11, null
  br i1 %12, label %13, label %31

13:                                               ; preds = %3
  %14 = load ptr, ptr %7, align 8, !tbaa !22
  %15 = load i32, ptr %14, align 4, !tbaa !15
  %16 = call noundef signext i8 @_ZL9U_SUCCESS10UErrorCode(i32 noundef %15)
  %17 = icmp ne i8 %16, 0
  br i1 %17, label %18, label %31

18:                                               ; preds = %13
  call void @llvm.lifetime.start.p0(i64 64, ptr %8) #12
  %19 = load ptr, ptr %6, align 8, !tbaa !17
  %20 = load ptr, ptr %7, align 8, !tbaa !22
  call void @_ZL11idForLocalePKcP10UErrorCode(ptr dead_on_unwind writable sret(%"class.icu_77::CharString") align 8 %8, ptr noundef %19, ptr noundef %20)
  %21 = load ptr, ptr %5, align 8, !tbaa !39
  %22 = invoke noundef ptr @_ZN6icu_7710CharString4dataEv(ptr noundef nonnull align 8 dereferenceable(60) %8)
          to label %23 unwind label %27

23:                                               ; preds = %18
  %24 = load ptr, ptr %7, align 8, !tbaa !22
  %25 = invoke noundef ptr @_ZN4CReg3regEPKDsPKcP10UErrorCode(ptr noundef %21, ptr noundef %22, ptr noundef %24)
          to label %26 unwind label %27

26:                                               ; preds = %23
  store ptr %25, ptr %4, align 8
  call void @_ZN6icu_7710CharStringD2Ev(ptr noundef nonnull align 8 dereferenceable(60) %8) #12
  call void @llvm.lifetime.end.p0(i64 64, ptr %8) #12
  br label %32

27:                                               ; preds = %23, %18
  %28 = landingpad { ptr, i32 }
          cleanup
  %29 = extractvalue { ptr, i32 } %28, 0
  store ptr %29, ptr %9, align 8
  %30 = extractvalue { ptr, i32 } %28, 1
  store i32 %30, ptr %10, align 4
  call void @_ZN6icu_7710CharStringD2Ev(ptr noundef nonnull align 8 dereferenceable(60) %8) #12
  call void @llvm.lifetime.end.p0(i64 64, ptr %8) #12
  br label %34

31:                                               ; preds = %13, %3
  store ptr null, ptr %4, align 8
  br label %32

32:                                               ; preds = %31, %26
  %33 = load ptr, ptr %4, align 8
  ret ptr %33

34:                                               ; preds = %27
  %35 = load ptr, ptr %9, align 8
  %36 = load i32, ptr %10, align 4
  %37 = insertvalue { ptr, i32 } poison, ptr %35, 0
  %38 = insertvalue { ptr, i32 } %37, i32 %36, 1
  resume { ptr, i32 } %38
}