; Function Attrs: mustprogress uwtable
define noundef ptr @ucurr_register_77(ptr noundef %0, ptr noundef %1, ptr noundef %2) local_unnamed_addr #1 personality ptr @__gxx_personality_v0 {
  %4 = alloca %"class.icu_77::CharString", align 8
  %.not = icmp eq ptr %2, null
  br i1 %.not, label %14, label %5

5:                                                ; preds = %3
  %6 = load i32, ptr %2, align 4, !tbaa !13
  %7 = icmp sgt i32 %6, 0
  br i1 %7, label %14, label %8

8:                                                ; preds = %5
  call void @llvm.lifetime.start.p0(i64 64, ptr nonnull %4) #20
  call void @_Z39ulocimp_getRegionForSupplementalData_77PKcbR10UErrorCode(ptr dead_on_unwind nonnull writable sret(%"class.icu_77::CharString") align 8 %4, ptr noundef %1, i1 noundef zeroext false, ptr noundef nonnull align 4 dereferenceable(4) %2)
  %9 = load ptr, ptr %4, align 8, !tbaa !3
  %10 = invoke noundef ptr @_ZN4CReg3regEPKDsPKcP10UErrorCode(ptr noundef %0, ptr noundef %9, ptr noundef nonnull %2)
          to label %11 unwind label %12

11:                                               ; preds = %8
  call void @_ZN6icu_7715MaybeStackArrayIcLi40EED1Ev(ptr noundef nonnull align 8 dereferenceable(60) %4) #20
  call void @llvm.lifetime.end.p0(i64 64, ptr nonnull %4) #20
  br label %14

12:                                               ; preds = %8
  %13 = landingpad { ptr, i32 }
          cleanup
  call void @_ZN6icu_7715MaybeStackArrayIcLi40EED1Ev(ptr noundef nonnull align 8 dereferenceable(60) %4) #20
  call void @llvm.lifetime.end.p0(i64 64, ptr nonnull %4) #20
  resume { ptr, i32 } %13

14:                                               ; preds = %3, %5, %11
  %.0 = phi ptr [ %10, %11 ], [ null, %5 ], [ null, %3 ]
  ret ptr %.0
}